target datalayout = "e-m:e-p270:32:32-p271:32:32-p272:64:64-i64:64-i128:128-f80:128-n8:16:32:64-S128"
target triple = "x86_64-unknown-linux-gnu"

%"struct.(anonymous namespace)::TestParam" = type { i64, i32, i32 }
%"class.(anonymous namespace)::NonTemporalMemcpyTest" = type { %"class.testing::TestWithParam", %"class.std::vector.26", %"class.std::vector.26" }
%"class.testing::TestWithParam" = type { %"class.testing::Test", %"class.testing::WithParamInterface" }
%"class.testing::Test" = type { ptr, %"class.std::unique_ptr.18" }
%"class.std::unique_ptr.18" = type { %"struct.std::__uniq_ptr_data.19" }
%"struct.std::__uniq_ptr_data.19" = type { %"class.std::__uniq_ptr_impl.20" }
%"class.std::__uniq_ptr_impl.20" = type { %"class.std::tuple.21" }
%"class.std::tuple.21" = type { %"struct.std::_Tuple_impl.22" }
%"struct.std::_Tuple_impl.22" = type { %"struct.std::_Head_base.25" }
%"struct.std::_Head_base.25" = type { ptr }
%"class.testing::WithParamInterface" = type { ptr }
%"class.std::vector.26" = type { %"struct.std::_Vector_base.27" }
%"struct.std::_Vector_base.27" = type { %"struct.std::_Vector_base<unsigned char, std::allocator<unsigned char>>::_Vector_impl" }
%"struct.std::_Vector_base<unsigned char, std::allocator<unsigned char>>::_Vector_impl" = type { %"struct.std::_Vector_base<unsigned char, std::allocator<unsigned char>>::_Vector_impl_data" }
%"struct.std::_Vector_base<unsigned char, std::allocator<unsigned char>>::_Vector_impl_data" = type { ptr, ptr, ptr }

; Function Attrs: mustprogress nounwind uwtable
define linkonce_odr dso_local noundef nonnull align 1 dereferenceable(1) ptr @_ZNSt6vectorIhSaIhEEixEm(ptr noundef nonnull align 8 dereferenceable(24) %this, i64 noundef %__n) #5 comdat align 2 {
entry:
  %this.addr = alloca ptr, align 8
  %__n.addr = alloca i64, align 8
  store ptr %this, ptr %this.addr, align 8
  store i64 %__n, ptr %__n.addr, align 8
  %this1 = load ptr, ptr %this.addr, align 8
  %_M_impl = getelementptr inbounds %"struct.std::_Vector_base.27", ptr %this1, i32 0, i32 0
  %_M_start = getelementptr inbounds %"struct.std::_Vector_base<unsigned char, std::allocator<unsigned char>>::_Vector_impl_data", ptr %_M_impl, i32 0, i32 0
  %0 = load ptr, ptr %_M_start, align 8
  %1 = load i64, ptr %__n.addr, align 8
  %add.ptr = getelementptr inbounds i8, ptr %0, i64 %1
  ret ptr %add.ptr
}

; Function Attrs: mustprogress nounwind uwtable
define linkonce_odr dso_local noundef nonnull align 4 dereferenceable(4) ptr @_ZSt3maxIjERKT_S2_S2_(ptr noundef nonnull align 4 dereferenceable(4) %__a, ptr noundef nonnull align 4 dereferenceable(4) %__b) #5 comdat {
entry:
  %retval = alloca ptr, align 8
  %__a.addr = alloca ptr, align 8
  %__b.addr = alloca ptr, align 8
  store ptr %__a, ptr %__a.addr, align 8
  store ptr %__b, ptr %__b.addr, align 8
  %0 = load ptr, ptr %__a.addr, align 8
  %1 = load i32, ptr %0, align 4
  %2 = load ptr, ptr %__b.addr, align 8
  %3 = load i32, ptr %2, align 4
  %cmp = icmp ult i32 %1, %3
  br i1 %cmp, label %if.then, label %if.end

if.then:                                          ; preds = %entry
  %4 = load ptr, ptr %__b.addr, align 8
  store ptr %4, ptr %retval, align 8
  br label %return

if.end:                                           ; preds = %entry
  %5 = load ptr, ptr %__a.addr, align 8
  store ptr %5, ptr %retval, align 8
  br label %return

return:                                           ; preds = %if.end, %if.then
  %6 = load ptr, ptr %retval, align 8
  ret ptr %6
}

; Function Attrs: mustprogress uwtable
define internal void @_ZN12_GLOBAL__N_121NonTemporalMemcpyTest5SetUpEv(ptr noundef nonnull align 8 dereferenceable(72) %this) unnamed_addr #4 align 2 {
entry:
  %this.addr = alloca ptr, align 8
  %buf_size = alloca i64, align 8
  %i = alloca i64, align 8
  store ptr %this, ptr %this.addr, align 8
  %this1 = load ptr, ptr %this.addr, align 8
  %call = call noundef nonnull align 8 dereferenceable(16) ptr @_ZN7testing18WithParamInterfaceIN12_GLOBAL__N_19TestParamEE8GetParamEv()
  %src_offset = getelementptr inbounds %"struct.(anonymous namespace)::TestParam", ptr %call, i32 0, i32 1
  %call2 = call noundef nonnull align 8 dereferenceable(16) ptr @_ZN7testing18WithParamInterfaceIN12_GLOBAL__N_19TestParamEE8GetParamEv()
  %dst_offset = getelementptr inbounds %"struct.(anonymous namespace)::TestParam", ptr %call2, i32 0, i32 2
  %call3 = call noundef nonnull align 4 dereferenceable(4) ptr @_ZSt3maxIjERKT_S2_S2_(ptr noundef nonnull align 4 dereferenceable(4) %src_offset, ptr noundef nonnull align 4 dereferenceable(4) %dst_offset)
  %0 = load i32, ptr %call3, align 4
  %conv = zext i32 %0 to i64
  %call4 = call noundef nonnull align 8 dereferenceable(16) ptr @_ZN7testing18WithParamInterfaceIN12_GLOBAL__N_19TestParamEE8GetParamEv()
  %copy_size = getelementptr inbounds %"struct.(anonymous namespace)::TestParam", ptr %call4, i32 0, i32 0
  %1 = load i64, ptr %copy_size, align 8
  %add = add i64 %conv, %1
  %add5 = add i64 %add, 15
  %div = udiv i64 %add5, 16
  %mul = mul i64 %div, 16
  store i64 %mul, ptr %buf_size, align 8
  %a_ = getelementptr inbounds %"class.(anonymous namespace)::NonTemporalMemcpyTest", ptr %this1, i32 0, i32 1
  %2 = load i64, ptr %buf_size, align 8
  call void @_ZNSt6vectorIhSaIhEE6resizeEm(ptr noundef nonnull align 8 dereferenceable(24) %a_, i64 noundef %2)
  %b_ = getelementptr inbounds %"class.(anonymous namespace)::NonTemporalMemcpyTest", ptr %this1, i32 0, i32 2
  %3 = load i64, ptr %buf_size, align 8
  call void @_ZNSt6vectorIhSaIhEE6resizeEm(ptr noundef nonnull align 8 dereferenceable(24) %b_, i64 noundef %3)
  store i64 0, ptr %i, align 8
  br label %for.cond

for.cond:                                         ; preds = %for.inc, %entry
  %4 = load i64, ptr %i, align 8
  %5 = load i64, ptr %buf_size, align 8
  %cmp = icmp ult i64 %4, %5
  br i1 %cmp, label %for.body, label %for.end

for.body:                                         ; preds = %for.cond
  %6 = load i64, ptr %i, align 8
  %rem = urem i64 %6, 256
  %conv6 = trunc i64 %rem to i8
  %a_7 = getelementptr inbounds %"class.(anonymous namespace)::NonTemporalMemcpyTest", ptr %this1, i32 0, i32 1
  %7 = load i64, ptr %i, align 8
  %call8 = call noundef nonnull align 1 dereferenceable(1) ptr @_ZNSt6vectorIhSaIhEEixEm(ptr noundef nonnull align 8 dereferenceable(24) %a_7, i64 noundef %7) #3
  store i8 %conv6, ptr %call8, align 1
  %a_9 = getelementptr inbounds %"class.(anonymous namespace)::NonTemporalMemcpyTest", ptr %this1, i32 0, i32 1
  %8 = load i64, ptr %i, align 8
  %call10 = call noundef nonnull align 1 dereferenceable(1) ptr @_ZNSt6vectorIhSaIhEEixEm(ptr noundef nonnull align 8 dereferenceable(24) %a_9, i64 noundef %8) #3
  %9 = load i8, ptr %call10, align 1
  %conv11 = zext i8 %9 to i32
  %not = xor i32 %conv11, -1
  %conv12 = trunc i32 %not to i8
  %b_13 = getelementptr inbounds %"class.(anonymous namespace)::NonTemporalMemcpyTest", ptr %this1, i32 0, i32 2
  %10 = load i64, ptr %i, align 8
  %call14 = call noundef nonnull align 1 dereferenceable(1) ptr @_ZNSt6vectorIhSaIhEEixEm(ptr noundef nonnull align 8 dereferenceable(24) %b_13, i64 noundef %10) #3
  store i8 %conv12, ptr %call14, align 1
  br label %for.inc

for.inc:                                          ; preds = %for.body
  %11 = load i64, ptr %i, align 8
  %inc = add i64 %11, 1
  store i64 %inc, ptr %i, align 8
  br label %for.cond, !llvm.loop !7

for.end:                                          ; preds = %for.cond
  ret void
}