; Function Attrs: mustprogress uwtable
define internal void @_ZN12_GLOBAL__N_121NonTemporalMemcpyTest5SetUpEv(ptr noundef nonnull align 8 dereferenceable(72) %this) unnamed_addr #3 align 2 {
entry:
  %call = tail call fastcc noundef nonnull align 8 dereferenceable(16) ptr @_ZN7testing18WithParamInterfaceIN12_GLOBAL__N_19TestParamEE8GetParamEv()
  %src_offset = getelementptr inbounds i8, ptr %call, i64 8
  %call2 = tail call fastcc noundef nonnull align 8 dereferenceable(16) ptr @_ZN7testing18WithParamInterfaceIN12_GLOBAL__N_19TestParamEE8GetParamEv()
  %dst_offset = getelementptr inbounds i8, ptr %call2, i64 12
  %0 = load i32, ptr %src_offset, align 8
  %1 = load i32, ptr %dst_offset, align 4
  %2 = tail call i32 @llvm.umax.i32(i32 %0, i32 %1)
  %conv = zext i32 %2 to i64
  %call4 = tail call fastcc noundef nonnull align 8 dereferenceable(16) ptr @_ZN7testing18WithParamInterfaceIN12_GLOBAL__N_19TestParamEE8GetParamEv()
  %3 = load i64, ptr %call4, align 8
  %add = add nuw nsw i64 %conv, 15
  %add5 = add i64 %add, %3
  %div8 = and i64 %add5, -16
  %a_ = getelementptr inbounds i8, ptr %this, i64 24
  tail call void @_ZNSt6vectorIhSaIhEE6resizeEm(ptr noundef nonnull align 8 dereferenceable(24) %a_, i64 noundef %div8)
  %b_ = getelementptr inbounds i8, ptr %this, i64 48
  tail call void @_ZNSt6vectorIhSaIhEE6resizeEm(ptr noundef nonnull align 8 dereferenceable(24) %b_, i64 noundef %div8)
  %cmp11.not = icmp eq i64 %div8, 0
  br i1 %cmp11.not, label %for.end, label %for.body

for.body:                                         ; preds = %entry, %for.body
  %i.012 = phi i64 [ %inc, %for.body ], [ 0, %entry ]
  %conv6 = trunc i64 %i.012 to i8
  %4 = load ptr, ptr %a_, align 8
  %add.ptr.i = getelementptr inbounds i8, ptr %4, i64 %i.012
  store i8 %conv6, ptr %add.ptr.i, align 1
  %5 = load ptr, ptr %a_, align 8
  %add.ptr.i9 = getelementptr inbounds i8, ptr %5, i64 %i.012
  %6 = load i8, ptr %add.ptr.i9, align 1
  %not = xor i8 %6, -1
  %7 = load ptr, ptr %b_, align 8
  %add.ptr.i10 = getelementptr inbounds i8, ptr %7, i64 %i.012
  store i8 %not, ptr %add.ptr.i10, align 1
  %inc = add nuw i64 %i.012, 1
  %exitcond.not = icmp eq i64 %inc, %div8
  br i1 %exitcond.not, label %for.end, label %for.body, !llvm.loop !18

for.end:                                          ; preds = %for.body, %entry
  ret void
}